ccopy_reg
_reconstructor
p1
(csrc.preprocessing.generators
Generator
p2
c__builtin__
object
p3
NtRp4
(dp5
S'preprocessor'
p6
g1
(csrc.preprocessing.preprocessors
Preprocessor
p7
g3
NtRp8
(dp9
S'operations_full'
p10
(lp11
g1
(csrc.preprocessing.operations
Selector
p12
g3
NtRp13
(dp14
S'columns'
p15
(lp16
S'author_id'
p17
aS'painting_id'
p18
asbasS'only_train_response'
p19
I00
sS'only_train_full'
p20
I00
sS'loader_resized_200'
p21
g1
(csrc.preprocessing.consumers
SimpleDataRelay
p22
g3
NtRp23
sS'loader_indices'
p24
g23
sS'operations_indices'
p25
(lp26
g1
(g12
g3
NtRp27
(dp28
g15
(lp29
g17
ag18
asbasS'only_train_metadata'
p30
I00
sS'loader_response'
p31
g23
sS'only_train_input'
p32
I00
sS'_cur_pipeline'
p33
S'indices'
p34
sS'loader_full'
p35
g23
sS'_pipelines'
p36
(lp37
S'input'
p38
aS'metadata'
p39
aS'response'
p40
aS'resized_200'
p41
aS'full'
p42
ag34
asS'operations_response'
p43
(lp44
g1
(g12
g3
NtRp45
(dp46
g15
g17
sbag1
(csrc.preprocessing.operations
Dummifier
p47
g3
NtRp48
(dp49
S'output_cols_fitted'
p50
(lp51
cnumpy.core.multiarray
scalar
p52
(cnumpy
dtype
p53
(S'i8'
I0
I1
tRp54
(I3
S'<'
NNNI-1
I-1
I0
tbS'\x18\x00\x00\x00\x00\x00\x00\x00'
tRp55
ag52
(g54
S'p\x01\x00\x00\x00\x00\x00\x00'
tRp56
ag52
(g54
S'\x01\x07\x00\x00\x00\x00\x00\x00'
tRp57
asS'output_cols'
p58
NsS'kwargs'
p59
(dp60
sbag1
(csrc.preprocessing.operations
ToNdarray
p61
g3
NtRp62
(dp63
S'dtype'
p64
cnumpy
float32
p65
sS'outshape'
p66
NsbasS'consumer_input'
p67
g23
sS'_fitted'
p68
I01
sS'only_train_indices'
p69
I00
sS'loader_metadata'
p70
g23
sS'_base_pipeline_operations'
p71
(lp72
sS'_base_pipeline_only_train'
p73
I00
sS'operations_resized_200'
p74
(lp75
g1
(g12
g3
NtRp76
(dp77
g15
(lp78
g17
ag18
asbasS'_base_pipeline_loader'
p79
NsS'operations_metadata'
p80
(lp81
g1
(g12
g3
NtRp82
(dp83
g15
(lp84
S'height_width_ratio'
p85
asbag1
(g61
g3
NtRp86
(dp87
g64
g65
sg66
Nsbag1
(csklearn.preprocessing.data
StandardScaler
p88
g3
NtRp89
(dp90
S'mean_'
p91
cnumpy.core.multiarray
_reconstruct
p92
(cnumpy
ndarray
p93
(I0
tS'b'
tRp94
(I1
(I1
tg53
(S'f4'
I0
I1
tRp95
(I3
S'<'
NNNI-1
I-1
I0
tbI00
S'\xa8\x8b\x87?'
tbsS'with_mean'
p96
I01
sS'var_'
p97
g92
(g93
(I0
tS'b'
tRp98
(I1
(I1
tg95
I00
S'\xcd\xa7!>'
tbsS'scale_'
p99
g92
(g93
(I0
tS'b'
tRp100
(I1
(I1
tg95
I00
S'\x1an\xcb>'
tbsS'with_std'
p101
I01
sS'n_samples_seen_'
p102
I4042
sS'_sklearn_version'
p103
S'0.18.1'
p104
sS'copy'
p105
I01
sbasS'operations_input'
p106
(lp107
g1
(csrc.preprocessing.operations
CategoricalFilter
p108
g3
NtRp109
(dp110
S'column'
p111
g17
sS'classes'
p112
cpandas.indexes.base
_new_Index
p113
(cpandas.indexes.numeric
Int64Index
p114
(dp115
S'data'
p116
g92
(g93
(I0
tS'b'
tRp117
(I1
(I3
tg54
I00
S'\x18\x00\x00\x00\x00\x00\x00\x00\x01\x07\x00\x00\x00\x00\x00\x00p\x01\x00\x00\x00\x00\x00\x00'
tbsS'name'
p118
NstRp119
sS'top_categories'
p120
I3
sbag1
(csrc.loading_utils
HeightWidthRatio
p121
g3
NtRp122
ag1
(csrc.preprocessing.operations
ColumnDrop
p123
g3
NtRp124
(dp125
g15
(lp126
S'height_px'
p127
aS'width_px'
p128
asbasS'loader_input'
p129
g1
(csrc.preprocessing.loaders
SelectorLoader
p130
g3
NtRp131
(dp132
g15
(lp133
g17
ag18
ag127
ag128
asS'loader'
p134
g1
(csrc.preprocessing.loaders
CSVLoader
p135
g3
NtRp136
(dp137
S'sample'
p138
NsS'ftest'
p139
S'data/test_author200.csv'
p140
sS'ftrain'
p141
S'data/train_author200.csv'
p142
sbsbsS'only_train_resized_200'
p143
I00
sbsS'final_transform'
p144
g1
(csrc.preprocessing.operations
SeparateDictKey
p145
g3
NtRp146
(dp147
S'key'
p148
g40
sbsS'transformations'
p149
(dp150
g41
g1
(csrc.loading_utils
ImageLoaderGenerator
p151
g3
NtRp152
(dp153
S'thumb'
p154
g41
sbsg42
g1
(g151
g3
NtRp155
(dp156
g154
g42
sbssb.