ccopy_reg
_reconstructor
p1
(csrc.preprocessing.operations
Dummifier
p2
c__builtin__
object
p3
NtRp4
(dp5
S'output_cols_fitted'
p6
(lp7
cnumpy.core.multiarray
scalar
p8
(cnumpy
dtype
p9
(S'i8'
I0
I1
tRp10
(I3
S'<'
NNNI-1
I-1
I0
tbS'\x18\x00\x00\x00\x00\x00\x00\x00'
tRp11
ag8
(g10
S'p\x01\x00\x00\x00\x00\x00\x00'
tRp12
ag8
(g10
S'\x01\x07\x00\x00\x00\x00\x00\x00'
tRp13
asS'output_cols'
p14
NsS'kwargs'
p15
(dp16
sb.