ccopy_reg
_reconstructor
p1
(csrc.preprocessing.generators
Generator
p2
c__builtin__
object
p3
NtRp4
(dp5
S'preprocessor'
p6
g1
(csrc.preprocessing.preprocessors
Preprocessor
p7
g3
NtRp8
(dp9
S'operations_full'
p10
(lp11
g1
(csrc.preprocessing.operations
Selector
p12
g3
NtRp13
(dp14
S'columns'
p15
(lp16
S'author_id'
p17
aS'painting_id'
p18
asbasS'only_train_response'
p19
I00
sS'only_train_full'
p20
I00
sS'loader_resized_200'
p21
g1
(csrc.preprocessing.consumers
SimpleDataRelay
p22
g3
NtRp23
sS'loader_indices'
p24
g23
sS'operations_indices'
p25
(lp26
g1
(g12
g3
NtRp27
(dp28
g15
(lp29
g17
ag18
asbasS'only_train_metadata'
p30
I00
sS'loader_response'
p31
g23
sS'only_train_input'
p32
I00
sS'_cur_pipeline'
p33
S'indices'
p34
sS'loader_full'
p35
g23
sS'_pipelines'
p36
(lp37
S'input'
p38
aS'metadata'
p39
aS'response'
p40
aS'resized_200'
p41
aS'full'
p42
ag34
asS'operations_response'
p43
(lp44
g1
(g12
g3
NtRp45
(dp46
g15
S'sup_art_movement'
p47
sbag1
(csrc.preprocessing.operations
SeriesDummifier
p48
g3
NtRp49
(dp50
S'output_cols_fitted'
p51
NsS'categories_counts'
p52
g1
(cpandas.core.series
Series
p53
g3
NtRp54
(dp55
S'_metadata'
p56
(lp57
S'name'
p58
asS'_data'
p59
g1
(cpandas.core.internals
SingleBlockManager
p60
g3
NtRp61
((lp62
cpandas.indexes.base
_new_Index
p63
(cpandas.indexes.base
Index
p64
(dp65
S'data'
p66
cnumpy.core.multiarray
_reconstruct
p67
(cnumpy
ndarray
p68
(I0
tS'b'
tRp69
(I1
(I5
tcnumpy
dtype
p70
(S'O8'
I0
I1
tRp71
(I3
S'|'
NNNI-1
I-1
I63
tbI00
(lp72
S'Impressionist'
p73
aS'Baroque'
p74
aS'Realist'
p75
aS'Post-Impressionist'
p76
aS'Renaissance'
p77
atbsg58
NstRp78
a(lp79
g67
(g68
(I0
tS'b'
tRp80
(I1
(I5
tg70
(S'i8'
I0
I1
tRp81
(I3
S'<'
NNNI-1
I-1
I0
tbI00
S'\x961\x00\x00\x00\x00\x00\x00\x9f#\x00\x00\x00\x00\x00\x00T\x1f\x00\x00\x00\x00\x00\x000\x1b\x00\x00\x00\x00\x00\x003\x17\x00\x00\x00\x00\x00\x00'
tba(lp82
g63
(g64
(dp83
g66
g67
(g68
(I0
tS'b'
tRp84
(I1
(I5
tg71
I00
(lp85
g73
ag74
ag75
ag76
ag77
atbsg58
NstRp86
a(dp87
S'0.14.1'
p88
(dp89
S'axes'
p90
g62
sS'blocks'
p91
(lp92
(dp93
S'mgr_locs'
p94
c__builtin__
slice
p95
(I0
I5
I1
tRp96
sS'values'
p97
g80
sasstbsS'_typ'
p98
S'series'
p99
sg58
S'sup_art_movement'
p100
sbsS'output_cols'
p101
(lp102
g73
ag74
ag75
ag76
ag77
asS'kwargs'
p103
(dp104
sbag1
(csrc.preprocessing.operations
ToNdarray
p105
g3
NtRp106
(dp107
S'dtype'
p108
cnumpy
float32
p109
sS'outshape'
p110
NsbasS'consumer_input'
p111
g23
sS'_fitted'
p112
I01
sS'only_train_indices'
p113
I00
sS'loader_metadata'
p114
g23
sS'_base_pipeline_operations'
p115
(lp116
sS'_base_pipeline_only_train'
p117
I00
sS'operations_resized_200'
p118
(lp119
g1
(g12
g3
NtRp120
(dp121
g15
(lp122
g17
ag18
asbasS'_base_pipeline_loader'
p123
NsS'operations_metadata'
p124
(lp125
g1
(g12
g3
NtRp126
(dp127
g15
(lp128
S'height_width_ratio'
p129
asbag1
(g105
g3
NtRp130
(dp131
g108
g109
sg110
Nsbag1
(csklearn.preprocessing.data
StandardScaler
p132
g3
NtRp133
(dp134
S'mean_'
p135
g67
(g68
(I0
tS'b'
tRp136
(I1
(I1
tg70
(S'f4'
I0
I1
tRp137
(I3
S'<'
NNNI-1
I-1
I0
tbI00
S'\xf6\x02R\xbd'
tbsS'with_mean'
p138
I01
sS'var_'
p139
g67
(g68
(I0
tS'b'
tRp140
(I1
(I1
tg137
I00
S'\x93(\x00>'
tbsS'scale_'
p141
g67
(g68
(I0
tS'b'
tRp142
(I1
(I1
tg137
I00
S'\xa2!\xb5>'
tbsS'with_std'
p143
I01
sS'n_samples_seen_'
p144
I42732
sS'_sklearn_version'
p145
S'0.18.1'
p146
sS'copy'
p147
I01
sbasS'operations_input'
p148
(lp149
g1
(csrc.preprocessing.operations
CategoricalFilter
p150
g3
NtRp151
(dp152
S'column'
p153
g47
sS'classes'
p154
g63
(g64
(dp155
g66
g67
(g68
(I0
tS'b'
tRp156
(I1
(I5
tg71
I00
(lp157
g73
ag74
ag75
ag76
ag77
atbsg58
NstRp158
sS'top_categories'
p159
I5
sbag1
(csrc.loading_utils
HeightWidthLogRatio
p160
g3
NtRp161
ag1
(csrc.preprocessing.operations
ColumnDrop
p162
g3
NtRp163
(dp164
g15
(lp165
S'height_px'
p166
aS'width_px'
p167
asbasS'loader_input'
p168
g1
(csrc.preprocessing.loaders
SelectorLoader
p169
g3
NtRp170
(dp171
g15
(lp172
g17
ag18
ag47
ag166
ag167
asS'loader'
p173
g1
(csrc.preprocessing.loaders
CSVLoader
p174
g3
NtRp175
(dp176
S'sample'
p177
NsS'ftest'
p178
S'data/athenaeum_painting_movement_test.csv'
p179
sS'ftrain'
p180
S'data/athenaeum_painting_movement_train.csv'
p181
sbsbsS'only_train_resized_200'
p182
I00
sbsS'final_transform'
p183
g1
(csrc.preprocessing.operations
SeparateDictKey
p184
g3
NtRp185
(dp186
S'key'
p187
g40
sbsS'transformations'
p188
(dp189
g41
g1
(csrc.loading_utils
ImageLoaderGenerator
p190
g3
NtRp191
(dp192
S'thumb'
p193
g41
sbsg42
g1
(g190
g3
NtRp194
(dp195
g193
g42
sbssb.