ccopy_reg
_reconstructor
p1
(csrc.preprocessing.operations
SeriesDummifier
p2
c__builtin__
object
p3
NtRp4
(dp5
S'output_cols_fitted'
p6
NsS'categories_counts'
p7
g1
(cpandas.core.series
Series
p8
g3
NtRp9
(dp10
S'_metadata'
p11
(lp12
S'name'
p13
asS'_data'
p14
g1
(cpandas.core.internals
SingleBlockManager
p15
g3
NtRp16
((lp17
cpandas.indexes.base
_new_Index
p18
(cpandas.indexes.base
Index
p19
(dp20
S'data'
p21
cnumpy.core.multiarray
_reconstruct
p22
(cnumpy
ndarray
p23
(I0
tS'b'
tRp24
(I1
(I5
tcnumpy
dtype
p25
(S'O8'
I0
I1
tRp26
(I3
S'|'
NNNI-1
I-1
I63
tbI00
(lp27
S'Impressionist'
p28
aS'Baroque'
p29
aS'Realist'
p30
aS'Post-Impressionist'
p31
aS'Renaissance'
p32
atbsg13
NstRp33
a(lp34
g22
(g23
(I0
tS'b'
tRp35
(I1
(I5
tg25
(S'i8'
I0
I1
tRp36
(I3
S'<'
NNNI-1
I-1
I0
tbI00
S'\x961\x00\x00\x00\x00\x00\x00\x9f#\x00\x00\x00\x00\x00\x00T\x1f\x00\x00\x00\x00\x00\x000\x1b\x00\x00\x00\x00\x00\x003\x17\x00\x00\x00\x00\x00\x00'
tba(lp37
g18
(g19
(dp38
g21
g22
(g23
(I0
tS'b'
tRp39
(I1
(I5
tg26
I00
(lp40
g28
ag29
ag30
ag31
ag32
atbsg13
NstRp41
a(dp42
S'0.14.1'
p43
(dp44
S'axes'
p45
g17
sS'blocks'
p46
(lp47
(dp48
S'mgr_locs'
p49
c__builtin__
slice
p50
(I0
I5
I1
tRp51
sS'values'
p52
g35
sasstbsS'_typ'
p53
S'series'
p54
sg13
S'sup_art_movement'
p55
sbsS'output_cols'
p56
(lp57
g28
ag29
ag30
ag31
ag32
asS'kwargs'
p58
(dp59
sb.